(dp1
S'failed'
p2
(lp3
S'1'
aS'4'
asS'source_names'
p4
(lp5
S'.'
asS'ids'
p6
(dp7
I1
(S'/Users/Darthpwner/Desktop/Selenium/NoseTravelingTony/TravelingTony/tests/SearchProduct_Test.py'
S'TravelingTony.tests.SearchProduct_Test'
p8
S'SearchProductTest.test_SearchProductTest'
tp9
sI2
(S'/Users/Darthpwner/Desktop/Selenium/NoseTravelingTony/TravelingTony/tests/SendRequest_Test.py'
S'TravelingTony.tests.SendRequest_Test'
p10
S'SendRequestTest.test_SendRequestTest'
tp11
sI3
(S'/Users/Darthpwner/Desktop/Selenium/NoseTravelingTony/TravelingTony/tests/SendRequest_Test.py'
g10
S'SendRequestTest.test_Validation'
tp12
sI4
(S'/Users/Darthpwner/Desktop/Selenium/NoseTravelingTony/TravelingTony/tests/ShareOnFacebook_Test.py'
S'TravelingTony.tests.ShareOnFacebook_Test'
p13
S'ShareOnFacebookTest.test_ShareOnFacebookTest'
tp14
ss.